; Function Attrs: mustprogress nounwind uwtable
define hidden void @_ZN14MacroAssembler9vpmovzxbwE11XMMRegister7Addressi(ptr noundef nonnull align 8 dereferenceable(40) %0, i32 %1, ptr noundef %2, i32 noundef %3) local_unnamed_addr #0 align 2 {
  %5 = alloca %class.Address, align 8
  call void @llvm.memcpy.p0.p0.i64(ptr noundef nonnull align 8 dereferenceable(21) %5, ptr noundef nonnull align 8 dereferenceable(21) %2, i64 21, i1 false)
  %6 = getelementptr inbounds i8, ptr %5, i64 24
  %7 = getelementptr inbounds i8, ptr %2, i64 24
  %8 = load ptr, ptr %7, align 8
  %9 = getelementptr inbounds i8, ptr %8, i64 16
  %10 = load ptr, ptr %9, align 8
  call void %10(ptr noundef nonnull align 8 dereferenceable(20) %7, ptr noundef nonnull align 8 dereferenceable(40) %6) #18
  call void @_ZN9Assembler9vpmovzxbwE11XMMRegister7Addressi(ptr noundef nonnull align 8 dereferenceable(40) %0, i32 %1, ptr noundef nonnull %5, i32 noundef %3) #18
  ret void
}